; Function Attrs: nounwind uwtable
define internal fastcc ptr @uriParsePcharW(ptr noundef nonnull captures(none) %0, ptr noundef nonnull %1, ptr noundef nonnull %2, ptr noundef %3) unnamed_addr #0 {
  %.not = icmp ult ptr %1, %2
  br i1 %.not, label %10, label %5

5:                                                ; preds = %4
  %6 = load ptr, ptr %0, align 8, !tbaa !51
  %7 = tail call i32 @uriFreeUriMembersMmW(ptr noundef %6, ptr noundef %3)
  %8 = getelementptr inbounds nuw i8, ptr %0, i64 16
  store ptr %2, ptr %8, align 8, !tbaa !68
  %9 = getelementptr inbounds nuw i8, ptr %0, i64 8
  store i32 1, ptr %9, align 8, !tbaa !69
  br label %21

10:                                               ; preds = %4
  %11 = load i32, ptr %1, align 4, !tbaa !55
  switch i32 %11, label %16 [
    i32 37, label %12
    i32 58, label %14
    i32 64, label %14
    i32 33, label %14
    i32 36, label %14
    i32 38, label %14
    i32 40, label %14
    i32 41, label %14
    i32 42, label %14
    i32 44, label %14
    i32 59, label %14
    i32 39, label %14
    i32 43, label %14
    i32 61, label %14
    i32 45, label %14
    i32 46, label %14
    i32 95, label %14
    i32 126, label %14
    i32 48, label %14
    i32 49, label %14
    i32 50, label %14
    i32 51, label %14
    i32 52, label %14
    i32 53, label %14
    i32 54, label %14
    i32 55, label %14
    i32 56, label %14
    i32 57, label %14
    i32 65, label %14
    i32 66, label %14
    i32 67, label %14
    i32 68, label %14
    i32 69, label %14
    i32 70, label %14
    i32 97, label %14
    i32 98, label %14
    i32 99, label %14
    i32 100, label %14
    i32 101, label %14
    i32 102, label %14
    i32 103, label %14
    i32 71, label %14
    i32 104, label %14
    i32 72, label %14
    i32 105, label %14
    i32 73, label %14
    i32 106, label %14
    i32 74, label %14
    i32 107, label %14
    i32 75, label %14
    i32 108, label %14
    i32 76, label %14
    i32 109, label %14
    i32 77, label %14
    i32 110, label %14
    i32 78, label %14
    i32 111, label %14
    i32 79, label %14
    i32 112, label %14
    i32 80, label %14
    i32 113, label %14
    i32 81, label %14
    i32 114, label %14
    i32 82, label %14
    i32 115, label %14
    i32 83, label %14
    i32 116, label %14
    i32 84, label %14
    i32 117, label %14
    i32 85, label %14
    i32 118, label %14
    i32 86, label %14
    i32 119, label %14
    i32 87, label %14
    i32 120, label %14
    i32 88, label %14
    i32 121, label %14
    i32 89, label %14
    i32 122, label %14
    i32 90, label %14
  ]

12:                                               ; preds = %10
  %13 = tail call fastcc ptr @uriParsePctEncodedW(ptr noundef %0, ptr noundef %1, ptr noundef %2, ptr noundef %3)
  br label %21

14:                                               ; preds = %10, %10, %10, %10, %10, %10, %10, %10, %10, %10, %10, %10, %10, %10, %10, %10, %10, %10, %10, %10, %10, %10, %10, %10, %10, %10, %10, %10, %10, %10, %10, %10, %10, %10, %10, %10, %10, %10, %10, %10, %10, %10, %10, %10, %10, %10, %10, %10, %10, %10, %10, %10, %10, %10, %10, %10, %10, %10, %10, %10, %10, %10, %10, %10, %10, %10, %10, %10, %10, %10, %10, %10, %10, %10, %10, %10, %10, %10, %10
  %15 = getelementptr inbounds nuw i8, ptr %1, i64 4
  br label %21

16:                                               ; preds = %10
  %17 = load ptr, ptr %0, align 8, !tbaa !51
  %18 = tail call i32 @uriFreeUriMembersMmW(ptr noundef %17, ptr noundef %3)
  %19 = getelementptr inbounds nuw i8, ptr %0, i64 16
  store ptr %1, ptr %19, align 8, !tbaa !68
  %20 = getelementptr inbounds nuw i8, ptr %0, i64 8
  store i32 1, ptr %20, align 8, !tbaa !69
  br label %21

21:                                               ; preds = %16, %14, %12, %5
  %.0 = phi ptr [ null, %5 ], [ null, %16 ], [ %15, %14 ], [ %13, %12 ]
  ret ptr %.0
}